CCS PCM C Compiler, Version 5.007, 61971               11-Aðu-20 16:44

               Filename:   D:\CCSC-ORNEKLERÝ\AYARLIDIJITALSAAT\ayarlisaat.lst

               ROM used:   423 words (5%)
                           Largest free fragment is 2048
               RAM used:   11 (3%) at main() level
                           21 (6%) worst case
               Stack used: 0 locations
               Stack size: 8

*
0000:  MOVLW  01
0001:  MOVWF  0A
0002:  GOTO   126
0003:  NOP
.................... #include <ayarlisaat.h> 
.................... #include <16F877A.h> 
.................... //////// Standard Header file for the PIC16F877A device //////////////// 
.................... #device PIC16F877A 
*
00AE:  MOVF   2E,W
00AF:  CLRF   78
00B0:  SUBWF  2D,W
00B1:  BTFSC  03.0
00B2:  GOTO   0B6
00B3:  MOVF   2D,W
00B4:  MOVWF  77
00B5:  GOTO   0C2
00B6:  CLRF   77
00B7:  MOVLW  08
00B8:  MOVWF  2F
00B9:  RLF    2D,F
00BA:  RLF    77,F
00BB:  MOVF   2E,W
00BC:  SUBWF  77,W
00BD:  BTFSC  03.0
00BE:  MOVWF  77
00BF:  RLF    78,F
00C0:  DECFSZ 2F,F
00C1:  GOTO   0B9
00C2:  RETURN
*
019D:  BSF    0A.0
019E:  BCF    0A.1
019F:  BCF    0A.2
01A0:  ADDWF  02,F
01A1:  GOTO   155
01A2:  GOTO   16C
01A3:  GOTO   182
01A4:  GOTO   182
01A5:  GOTO   160
01A6:  GOTO   177
....................  
.................... #list 
....................  
.................... #device ADC=16 
....................  
.................... #FUSES NOWDT                 	//No Watch Dog Timer 
.................... #FUSES NOBROWNOUT            	//No brownout reset 
.................... #FUSES NOLVP                 	//No low voltage prgming, B3(PIC16) or B5(PIC18) used for I/O 
....................  
.................... #use delay(crystal=20000000) 
*
0004:  MOVLW  2D
0005:  MOVWF  04
0006:  BCF    03.7
0007:  MOVF   00,W
0008:  BTFSC  03.2
0009:  GOTO   017
000A:  MOVLW  06
000B:  MOVWF  78
000C:  CLRF   77
000D:  DECFSZ 77,F
000E:  GOTO   00D
000F:  DECFSZ 78,F
0010:  GOTO   00C
0011:  MOVLW  7B
0012:  MOVWF  77
0013:  DECFSZ 77,F
0014:  GOTO   013
0015:  DECFSZ 00,F
0016:  GOTO   00A
0017:  RETURN
....................  
....................  
....................  
.................... void goster(int8, int8, int1);   //SEMBOLÝK TANIM 
.................... int8 tusalgila();   //SEMBOLÝK TANIM 
....................  
.................... void main() 
*
0126:  BSF    03.5
0127:  BSF    1F.0
0128:  BSF    1F.1
0129:  BSF    1F.2
012A:  BCF    1F.3
012B:  MOVLW  07
012C:  MOVWF  1C
012D:  BCF    03.7
012E:  MOVLW  1F
012F:  ANDWF  03,F
.................... { 
....................    signed int8 s,d,j; 
....................    int16 i; 
....................    while(TRUE) 
....................    { 
....................    for(s=0;s<=23;s++) 
*
0132:  CLRF   21
0133:  BTFSC  21.7
0134:  GOTO   139
0135:  MOVF   21,W
0136:  SUBLW  17
0137:  BTFSS  03.0
0138:  GOTO   19B
....................     for(d=0;d<=59;d++) 
0139:  CLRF   22
013A:  BTFSC  22.7
013B:  GOTO   140
013C:  MOVF   22,W
013D:  SUBLW  3B
013E:  BTFSS  03.0
013F:  GOTO   199
....................      for(i=1;i<=500;i++)  // 1 dk için saniye deðiþimi bu döngü ile ayarlanýr 
0140:  CLRF   25
0141:  MOVLW  01
0142:  MOVWF  24
0143:  MOVF   25,W
0144:  SUBLW  01
0145:  BTFSS  03.0
0146:  GOTO   197
0147:  BTFSS  03.2
0148:  GOTO   14D
0149:  MOVF   24,W
014A:  SUBLW  F4
014B:  BTFSS  03.0
014C:  GOTO   197
....................      { 
....................      switch (tusalgila())  // 4 ms zaman alýr 
014D:  GOTO   018
014E:  MOVLW  02
014F:  SUBWF  78,W
0150:  ADDLW  FA
0151:  BTFSC  03.0
0152:  GOTO   182
0153:  ADDLW  06
0154:  GOTO   19D
....................      { 
....................      case 2:  //saat arttýr 
....................      s++; 
0155:  INCF   21,F
....................      if(s>=24) s=0; 
0156:  BTFSC  21.7
0157:  GOTO   15C
0158:  MOVF   21,W
0159:  SUBLW  17
015A:  BTFSS  03.0
015B:  CLRF   21
....................      i=1;  // ayarlardan sonra saniyeyi resetler 
015C:  CLRF   25
015D:  MOVLW  01
015E:  MOVWF  24
....................      break; 
015F:  GOTO   182
....................      case 6:  //saat azalt 
....................      s--; 
0160:  DECF   21,F
....................      if(s<=-1) s=23; 
0161:  MOVF   21,W
0162:  XORLW  80
0163:  SUBLW  7F
0164:  BTFSS  03.0
0165:  GOTO   168
0166:  MOVLW  17
0167:  MOVWF  21
....................      i=1;  // ayarlardan sonra saniyeyi resetler      
0168:  CLRF   25
0169:  MOVLW  01
016A:  MOVWF  24
....................      break; 
016B:  GOTO   182
....................      case 3:  //dakika arttýr 
....................      d++; 
016C:  INCF   22,F
....................      if(d>=60) d=0; 
016D:  BTFSC  22.7
016E:  GOTO   173
016F:  MOVF   22,W
0170:  SUBLW  3B
0171:  BTFSS  03.0
0172:  CLRF   22
....................      i=1;  // ayarlardan sonra saniyeyi resetler      
0173:  CLRF   25
0174:  MOVLW  01
0175:  MOVWF  24
....................      break; 
0176:  GOTO   182
....................      case 7:  //dakika azalt 
....................      d--; 
0177:  DECF   22,F
....................      if(d<=-1) s=59; 
0178:  MOVF   22,W
0179:  XORLW  80
017A:  SUBLW  7F
017B:  BTFSS  03.0
017C:  GOTO   17F
017D:  MOVLW  3B
017E:  MOVWF  21
....................      i=1;  // ayarlardan sonra saniyeyi resetler      
017F:  CLRF   25
0180:  MOVLW  01
0181:  MOVWF  24
....................      break;      
....................      }        
....................       for(j=1;j<=29;j++)  //116 ms zaman alýr 
0182:  MOVLW  01
0183:  MOVWF  23
0184:  BTFSC  23.7
0185:  GOTO   18A
0186:  MOVF   23,W
0187:  SUBLW  1D
0188:  BTFSS  03.0
0189:  GOTO   193
....................       goster(s,d,1);  // 4 ms zaman alýr 
018A:  MOVF   21,W
018B:  MOVWF  26
018C:  MOVF   22,W
018D:  MOVWF  27
018E:  MOVLW  01
018F:  MOVWF  28
0190:  GOTO   0C3
0191:  INCF   23,F
0192:  GOTO   184
0193:  INCF   24,F
0194:  BTFSC  03.2
0195:  INCF   25,F
0196:  GOTO   143
0197:  INCF   22,F
0198:  GOTO   13A
0199:  INCF   21,F
019A:  GOTO   133
....................      }    
019B:  GOTO   132
....................      } 
.................... } 
....................  
019C:  SLEEP
.................... int8 tusalgila() 
*
0018:  CLRF   26
.................... { 
....................  
.................... int8 key=0;   //key=0 olsaydý basýlý tutulan butonun sayýsý gösterirdi. sadece key yazýlýnca son basýlan butonun sayýsýný gösteriyor //int8 key=0; yada 1....16 deðerlerinden farklý bir deðer key=20 
....................   output_d(0b11110111); 
0019:  BSF    03.5
001A:  CLRF   08
001B:  MOVLW  F7
001C:  BCF    03.5
001D:  MOVWF  08
.................... delay_ms(1); 
001E:  MOVLW  01
001F:  MOVWF  2D
0020:  CALL   004
.................... if(input(PIN_D4)==0) key=1; 
0021:  BSF    03.5
0022:  BSF    08.4
0023:  BCF    03.5
0024:  BTFSC  08.4
0025:  GOTO   028
0026:  MOVLW  01
0027:  MOVWF  26
.................... if(input(PIN_D5)==0) key=2; 
0028:  BSF    03.5
0029:  BSF    08.5
002A:  BCF    03.5
002B:  BTFSC  08.5
002C:  GOTO   02F
002D:  MOVLW  02
002E:  MOVWF  26
.................... if(input(PIN_D6)==0) key=3; 
002F:  BSF    03.5
0030:  BSF    08.6
0031:  BCF    03.5
0032:  BTFSC  08.6
0033:  GOTO   036
0034:  MOVLW  03
0035:  MOVWF  26
.................... if(input(PIN_D7)==0) key=4; 
0036:  BSF    03.5
0037:  BSF    08.7
0038:  BCF    03.5
0039:  BTFSC  08.7
003A:  GOTO   03D
003B:  MOVLW  04
003C:  MOVWF  26
....................   output_d(0b11111011); 
003D:  BSF    03.5
003E:  CLRF   08
003F:  MOVLW  FB
0040:  BCF    03.5
0041:  MOVWF  08
.................... delay_ms(1); 
0042:  MOVLW  01
0043:  MOVWF  2D
0044:  CALL   004
.................... if(input(PIN_D4)==0) key=5; 
0045:  BSF    03.5
0046:  BSF    08.4
0047:  BCF    03.5
0048:  BTFSC  08.4
0049:  GOTO   04C
004A:  MOVLW  05
004B:  MOVWF  26
.................... if(input(PIN_D5)==0) key=6; 
004C:  BSF    03.5
004D:  BSF    08.5
004E:  BCF    03.5
004F:  BTFSC  08.5
0050:  GOTO   053
0051:  MOVLW  06
0052:  MOVWF  26
.................... if(input(PIN_D6)==0) key=7; 
0053:  BSF    03.5
0054:  BSF    08.6
0055:  BCF    03.5
0056:  BTFSC  08.6
0057:  GOTO   05A
0058:  MOVLW  07
0059:  MOVWF  26
.................... if(input(PIN_D7)==0) key=8; 
005A:  BSF    03.5
005B:  BSF    08.7
005C:  BCF    03.5
005D:  BTFSC  08.7
005E:  GOTO   061
005F:  MOVLW  08
0060:  MOVWF  26
....................   output_d(0b11111101); 
0061:  BSF    03.5
0062:  CLRF   08
0063:  MOVLW  FD
0064:  BCF    03.5
0065:  MOVWF  08
.................... delay_ms(1); 
0066:  MOVLW  01
0067:  MOVWF  2D
0068:  CALL   004
.................... if(input(PIN_D4)==0) key=9; 
0069:  BSF    03.5
006A:  BSF    08.4
006B:  BCF    03.5
006C:  BTFSC  08.4
006D:  GOTO   070
006E:  MOVLW  09
006F:  MOVWF  26
.................... if(input(PIN_D5)==0) key=10; 
0070:  BSF    03.5
0071:  BSF    08.5
0072:  BCF    03.5
0073:  BTFSC  08.5
0074:  GOTO   077
0075:  MOVLW  0A
0076:  MOVWF  26
.................... if(input(PIN_D6)==0) key=11; 
0077:  BSF    03.5
0078:  BSF    08.6
0079:  BCF    03.5
007A:  BTFSC  08.6
007B:  GOTO   07E
007C:  MOVLW  0B
007D:  MOVWF  26
.................... if(input(PIN_D7)==0) key=12; 
007E:  BSF    03.5
007F:  BSF    08.7
0080:  BCF    03.5
0081:  BTFSC  08.7
0082:  GOTO   085
0083:  MOVLW  0C
0084:  MOVWF  26
....................   output_d(0b11111110); 
0085:  BSF    03.5
0086:  CLRF   08
0087:  MOVLW  FE
0088:  BCF    03.5
0089:  MOVWF  08
.................... delay_ms(1); 
008A:  MOVLW  01
008B:  MOVWF  2D
008C:  CALL   004
.................... if(input(PIN_D4)==0) key=13; 
008D:  BSF    03.5
008E:  BSF    08.4
008F:  BCF    03.5
0090:  BTFSC  08.4
0091:  GOTO   094
0092:  MOVLW  0D
0093:  MOVWF  26
.................... if(input(PIN_D5)==0) key=14; 
0094:  BSF    03.5
0095:  BSF    08.5
0096:  BCF    03.5
0097:  BTFSC  08.5
0098:  GOTO   09B
0099:  MOVLW  0E
009A:  MOVWF  26
.................... if(input(PIN_D6)==0) key=15; 
009B:  BSF    03.5
009C:  BSF    08.6
009D:  BCF    03.5
009E:  BTFSC  08.6
009F:  GOTO   0A2
00A0:  MOVLW  0F
00A1:  MOVWF  26
.................... if(input(PIN_D7)==0) key=16; 
00A2:  BSF    03.5
00A3:  BSF    08.7
00A4:  BCF    03.5
00A5:  BTFSC  08.7
00A6:  GOTO   0A9
00A7:  MOVLW  10
00A8:  MOVWF  26
....................  
.................... return key; 
00A9:  MOVF   26,W
00AA:  MOVWF  78
00AB:  BCF    0A.3
00AC:  BCF    0A.4
00AD:  GOTO   14E (RETURN)
....................  
.................... } 
....................  
.................... void goster(int8 saat, int8 dakika, int1 k) 
.................... { 
.................... int8 sonlar,sbirler,donlar,dbirler; 
.................... static int8 sayac; 
*
0130:  BCF    03.5
0131:  CLRF   20
.................... sayac++; 
*
00C3:  INCF   20,F
.................... if(sayac>=250) sayac=0; 
00C4:  MOVF   20,W
00C5:  SUBLW  F9
00C6:  BTFSS  03.0
00C7:  CLRF   20
.................... sonlar=saat/10; 
00C8:  MOVF   26,W
00C9:  MOVWF  2D
00CA:  MOVLW  0A
00CB:  MOVWF  2E
00CC:  CALL   0AE
00CD:  MOVF   78,W
00CE:  MOVWF  29
.................... sbirler=saat%10; 
00CF:  MOVF   26,W
00D0:  MOVWF  2D
00D1:  MOVLW  0A
00D2:  MOVWF  2E
00D3:  CALL   0AE
00D4:  MOVF   77,W
00D5:  MOVWF  2A
.................... donlar=dakika/10; 
00D6:  MOVF   27,W
00D7:  MOVWF  2D
00D8:  MOVLW  0A
00D9:  MOVWF  2E
00DA:  CALL   0AE
00DB:  MOVF   78,W
00DC:  MOVWF  2B
.................... dbirler=dakika%10; 
00DD:  MOVF   27,W
00DE:  MOVWF  2D
00DF:  MOVLW  0A
00E0:  MOVWF  2E
00E1:  CALL   0AE
00E2:  MOVF   77,W
00E3:  MOVWF  2C
.................... output_b(0b00000001); 
00E4:  BSF    03.5
00E5:  CLRF   06
00E6:  MOVLW  01
00E7:  BCF    03.5
00E8:  MOVWF  06
.................... output_d(sonlar); 
00E9:  BSF    03.5
00EA:  CLRF   08
00EB:  BCF    03.5
00EC:  MOVF   29,W
00ED:  MOVWF  08
.................... delay_ms(1); 
00EE:  MOVLW  01
00EF:  MOVWF  2D
00F0:  CALL   004
.................... output_b(0b00000010); 
00F1:  BSF    03.5
00F2:  CLRF   06
00F3:  MOVLW  02
00F4:  BCF    03.5
00F5:  MOVWF  06
.................... if(sayac<=125 && k) sbirler=sbirler|0b00010000; 
00F6:  MOVF   20,W
00F7:  SUBLW  7D
00F8:  BTFSS  03.0
00F9:  GOTO   0FD
00FA:  MOVF   28,F
00FB:  BTFSS  03.2
00FC:  BSF    2A.4
.................... output_d(sbirler); 
00FD:  BSF    03.5
00FE:  CLRF   08
00FF:  BCF    03.5
0100:  MOVF   2A,W
0101:  MOVWF  08
.................... delay_ms(1); 
0102:  MOVLW  01
0103:  MOVWF  2D
0104:  CALL   004
.................... output_b(0b00000100); 
0105:  BSF    03.5
0106:  CLRF   06
0107:  MOVLW  04
0108:  BCF    03.5
0109:  MOVWF  06
.................... output_d(donlar); 
010A:  BSF    03.5
010B:  CLRF   08
010C:  BCF    03.5
010D:  MOVF   2B,W
010E:  MOVWF  08
.................... delay_ms(1); 
010F:  MOVLW  01
0110:  MOVWF  2D
0111:  CALL   004
.................... output_b(0b00001000); 
0112:  BSF    03.5
0113:  CLRF   06
0114:  MOVLW  08
0115:  BCF    03.5
0116:  MOVWF  06
.................... output_d(dbirler); 
0117:  BSF    03.5
0118:  CLRF   08
0119:  BCF    03.5
011A:  MOVF   2C,W
011B:  MOVWF  08
.................... delay_ms(1); 
011C:  MOVLW  01
011D:  MOVWF  2D
011E:  CALL   004
.................... output_b(0); 
011F:  BSF    03.5
0120:  CLRF   06
0121:  BCF    03.5
0122:  CLRF   06
0123:  BCF    0A.3
0124:  BCF    0A.4
0125:  GOTO   191 (RETURN)
.................... } 

Configuration Fuses:
   Word  1: 3F32   HS NOWDT PUT NOBROWNOUT NOLVP NOCPD NOWRT NODEBUG NOPROTECT
